; Function Attrs: nofree norecurse nosync nounwind memory(argmem: read) uwtable
define i32 @Scl_LibertyCountItems(ptr noundef readonly %0, ptr noundef readnone %1) local_unnamed_addr #2 {
  %3 = icmp ult ptr %0, %1
  br i1 %3, label %.lr.ph, label %._crit_edge

.lr.ph:                                           ; preds = %2, %.lr.ph
  %.09 = phi i32 [ %8, %.lr.ph ], [ 0, %2 ]
  %.068 = phi ptr [ %9, %.lr.ph ], [ %0, %2 ]
  %4 = load i8, ptr %.068, align 1
  %5 = icmp eq i8 %4, 40
  %6 = icmp eq i8 %4, 58
  %narrow = or i1 %5, %6
  %7 = zext i1 %narrow to i32
  %8 = add nuw nsw i32 %.09, %7
  %9 = getelementptr inbounds nuw i8, ptr %.068, i64 1
  %exitcond.not = icmp eq ptr %9, %1
  br i1 %exitcond.not, label %._crit_edge, label %.lr.ph, !llvm.loop !7

._crit_edge:                                      ; preds = %.lr.ph, %2
  %.0.lcssa = phi i32 [ 0, %2 ], [ %8, %.lr.ph ]
  ret i32 %.0.lcssa
}